target datalayout = "e-m:e-p270:32:32-p271:32:32-p272:64:64-i64:64-i128:128-f80:128-n8:16:32:64-S128"
target triple = "x86_64-pc-linux-gnu"

%struct.ArgoASFFileHeader = type { i32, i16, i16, i32, i32, [9 x i8] }

; Function Attrs: nounwind uwtable
define i32 @ff_argo_asf_validate_file_header(ptr noundef %0, ptr noundef %1) #0 {
  %3 = alloca i32, align 4
  %4 = alloca ptr, align 8
  %5 = alloca ptr, align 8
  store ptr %0, ptr %4, align 8, !tbaa !20
  store ptr %1, ptr %5, align 8, !tbaa !4
  %6 = load ptr, ptr %5, align 8, !tbaa !4
  %7 = getelementptr inbounds nuw %struct.ArgoASFFileHeader, ptr %6, i32 0, i32 0
  %8 = load i32, ptr %7, align 4, !tbaa !12
  %9 = icmp ne i32 %8, 4608833
  br i1 %9, label %15, label %10

10:                                               ; preds = %2
  %11 = load ptr, ptr %5, align 8, !tbaa !4
  %12 = getelementptr inbounds nuw %struct.ArgoASFFileHeader, ptr %11, i32 0, i32 3
  %13 = load i32, ptr %12, align 4, !tbaa !18
  %14 = icmp eq i32 %13, 0
  br i1 %14, label %15, label %16

15:                                               ; preds = %10, %2
  store i32 -1094995529, ptr %3, align 4
  br label %23

16:                                               ; preds = %10
  %17 = load ptr, ptr %5, align 8, !tbaa !4
  %18 = getelementptr inbounds nuw %struct.ArgoASFFileHeader, ptr %17, i32 0, i32 4
  %19 = load i32, ptr %18, align 4, !tbaa !19
  %20 = icmp ult i32 %19, 24
  br i1 %20, label %21, label %22

21:                                               ; preds = %16
  store i32 -1094995529, ptr %3, align 4
  br label %23

22:                                               ; preds = %16
  store i32 0, ptr %3, align 4
  br label %23

23:                                               ; preds = %22, %21, %15
  %24 = load i32, ptr %3, align 4
  ret i32 %24
}