; Function Attrs: mustprogress nofree norecurse nosync nounwind willreturn memory(argmem: read) uwtable
define range(i32 -1094995529, 1) i32 @ff_argo_asf_validate_file_header(ptr noundef readnone captures(none) %0, ptr noundef readonly captures(none) %1) local_unnamed_addr #2 {
  %3 = load i32, ptr %1, align 4, !tbaa !7
  %.not = icmp eq i32 %3, 4608833
  br i1 %.not, label %4, label %12

4:                                                ; preds = %2
  %5 = getelementptr inbounds nuw i8, ptr %1, i64 8
  %6 = load i32, ptr %5, align 4, !tbaa !13
  %7 = icmp eq i32 %6, 0
  br i1 %7, label %12, label %8

8:                                                ; preds = %4
  %9 = getelementptr inbounds nuw i8, ptr %1, i64 12
  %10 = load i32, ptr %9, align 4, !tbaa !14
  %11 = icmp ult i32 %10, 24
  %. = select i1 %11, i32 -1094995529, i32 0
  br label %12

12:                                               ; preds = %8, %2, %4
  %.0 = phi i32 [ -1094995529, %4 ], [ -1094995529, %2 ], [ %., %8 ]
  ret i32 %.0
}